; ModuleID = '38/588.c'
source_filename = "38/588.c"
target datalayout = "e-m:e-p270:32:32-p271:32:32-p272:64:64-i64:64-f80:128-n8:16:32:64-S128"
target triple = "x86_64-pc-linux-gnu"

@.str = private unnamed_addr constant [3 x i8] c"%d\00", align 1
@.str.1 = private unnamed_addr constant [4 x i8] c"%lf\00", align 1
@.str.2 = private unnamed_addr constant [6 x i8] c"%.5f\0A\00", align 1

; Function Attrs: noinline nounwind uwtable
define dso_local i32 @main() #0 {
  %1 = alloca i32, align 4
  %2 = alloca i32, align 4
  %3 = alloca i32, align 4
  %4 = alloca i32, align 4
  %5 = alloca i32, align 4
  %6 = alloca double*, align 8
  %7 = alloca double, align 8
  %8 = alloca double, align 8
  %9 = alloca double*, align 8
  store i32 0, i32* %1, align 4
  %10 = call i32 (i8*, ...) @__isoc99_scanf(i8* getelementptr inbounds ([3 x i8], [3 x i8]* @.str, i64 0, i64 0), i32* %2)
  %11 = load i32, i32* %2, align 4
  %12 = sext i32 %11 to i64
  %13 = mul i64 8, %12
  %14 = call noalias i8* @malloc(i64 %13) #3
  %15 = bitcast i8* %14 to double*
  store double* %15, double** %6, align 8
  store i32 0, i32* %3, align 4
  br label %16

16:                                               ; preds = %87, %0
  %17 = load i32, i32* %3, align 4
  %18 = load i32, i32* %2, align 4
  %19 = icmp slt i32 %17, %18
  br i1 %19, label %20, label %90

20:                                               ; preds = %16
  store double 0.000000e+00, double* %7, align 8
  %21 = call i32 (i8*, ...) @__isoc99_scanf(i8* getelementptr inbounds ([3 x i8], [3 x i8]* @.str, i64 0, i64 0), i32* %5)
  %22 = load i32, i32* %5, align 4
  %23 = sext i32 %22 to i64
  %24 = mul i64 8, %23
  %25 = call noalias i8* @malloc(i64 %24) #3
  %26 = bitcast i8* %25 to double*
  store double* %26, double** %9, align 8
  store i32 0, i32* %4, align 4
  br label %27

27:                                               ; preds = %44, %20
  %28 = load i32, i32* %4, align 4
  %29 = load i32, i32* %5, align 4
  %30 = icmp slt i32 %28, %29
  br i1 %30, label %31, label %47

31:                                               ; preds = %27
  %32 = load double*, double** %9, align 8
  %33 = load i32, i32* %4, align 4
  %34 = sext i32 %33 to i64
  %35 = getelementptr inbounds double, double* %32, i64 %34
  %36 = call i32 (i8*, ...) @__isoc99_scanf(i8* getelementptr inbounds ([4 x i8], [4 x i8]* @.str.1, i64 0, i64 0), double* %35)
  %37 = load double*, double** %9, align 8
  %38 = load i32, i32* %4, align 4
  %39 = sext i32 %38 to i64
  %40 = getelementptr inbounds double, double* %37, i64 %39
  %41 = load double, double* %40, align 8
  %42 = load double, double* %7, align 8
  %43 = fadd double %42, %41
  store double %43, double* %7, align 8
  br label %44

44:                                               ; preds = %31
  %45 = load i32, i32* %4, align 4
  %46 = add nsw i32 %45, 1
  store i32 %46, i32* %4, align 4
  br label %27

47:                                               ; preds = %27
  %48 = load double, double* %7, align 8
  %49 = load i32, i32* %5, align 4
  %50 = sitofp i32 %49 to double
  %51 = fdiv double %48, %50
  store double %51, double* %8, align 8
  store double 0.000000e+00, double* %7, align 8
  store i32 0, i32* %4, align 4
  br label %52

52:                                               ; preds = %74, %47
  %53 = load i32, i32* %4, align 4
  %54 = load i32, i32* %5, align 4
  %55 = icmp slt i32 %53, %54
  br i1 %55, label %56, label %77

56:                                               ; preds = %52
  %57 = load double*, double** %9, align 8
  %58 = load i32, i32* %4, align 4
  %59 = sext i32 %58 to i64
  %60 = getelementptr inbounds double, double* %57, i64 %59
  %61 = load double, double* %60, align 8
  %62 = load double, double* %8, align 8
  %63 = fsub double %61, %62
  %64 = load double*, double** %9, align 8
  %65 = load i32, i32* %4, align 4
  %66 = sext i32 %65 to i64
  %67 = getelementptr inbounds double, double* %64, i64 %66
  %68 = load double, double* %67, align 8
  %69 = load double, double* %8, align 8
  %70 = fsub double %68, %69
  %71 = fmul double %63, %70
  %72 = load double, double* %7, align 8
  %73 = fadd double %72, %71
  store double %73, double* %7, align 8
  br label %74

74:                                               ; preds = %56
  %75 = load i32, i32* %4, align 4
  %76 = add nsw i32 %75, 1
  store i32 %76, i32* %4, align 4
  br label %52

77:                                               ; preds = %52
  %78 = load double, double* %7, align 8
  %79 = load i32, i32* %5, align 4
  %80 = sitofp i32 %79 to double
  %81 = fdiv double %78, %80
  %82 = call double @sqrt(double %81) #3
  %83 = load double*, double** %6, align 8
  %84 = load i32, i32* %3, align 4
  %85 = sext i32 %84 to i64
  %86 = getelementptr inbounds double, double* %83, i64 %85
  store double %82, double* %86, align 8
  br label %87

87:                                               ; preds = %77
  %88 = load i32, i32* %3, align 4
  %89 = add nsw i32 %88, 1
  store i32 %89, i32* %3, align 4
  br label %16

90:                                               ; preds = %16
  store i32 0, i32* %3, align 4
  br label %91

91:                                               ; preds = %102, %90
  %92 = load i32, i32* %3, align 4
  %93 = load i32, i32* %2, align 4
  %94 = icmp slt i32 %92, %93
  br i1 %94, label %95, label %105

95:                                               ; preds = %91
  %96 = load double*, double** %6, align 8
  %97 = load i32, i32* %3, align 4
  %98 = sext i32 %97 to i64
  %99 = getelementptr inbounds double, double* %96, i64 %98
  %100 = load double, double* %99, align 8
  %101 = call i32 (i8*, ...) @printf(i8* getelementptr inbounds ([6 x i8], [6 x i8]* @.str.2, i64 0, i64 0), double %100)
  br label %102

102:                                              ; preds = %95
  %103 = load i32, i32* %3, align 4
  %104 = add nsw i32 %103, 1
  store i32 %104, i32* %3, align 4
  br label %91

105:                                              ; preds = %91
  ret i32 0
}

declare dso_local i32 @__isoc99_scanf(i8*, ...) #1

; Function Attrs: nounwind
declare dso_local noalias i8* @malloc(i64) #2

; Function Attrs: nounwind
declare dso_local double @sqrt(double) #2

declare dso_local i32 @printf(i8*, ...) #1


!llvm.module.flags = !{!0}
!llvm.ident = !{!1}

!0 = !{i32 1, !"wchar_size", i32 4}
!1 = !{!"clang version 10.0.0-4ubuntu1 "}
